target datalayout = "e-m:e-p270:32:32-p271:32:32-p272:64:64-i64:64-i128:128-f80:128-n8:16:32:64-S128"
target triple = "x86_64-pc-linux-gnu"

@bio_err = external global ptr, align 8
@.str.103 = private unnamed_addr constant [26 x i8] c"../openssl/apps/pkeyutl.c\00", align 1
@.str.121 = private unnamed_addr constant [44 x i8] c"A private key is needed for this operation\0A\00", align 1
@.str.122 = private unnamed_addr constant [24 x i8] c"Error getting password\0A\00", align 1
@.str.123 = private unnamed_addr constant [12 x i8] c"private key\00", align 1
@.str.124 = private unnamed_addr constant [11 x i8] c"public key\00", align 1
@.str.125 = private unnamed_addr constant [12 x i8] c"Certificate\00", align 1

; Function Attrs: nounwind uwtable
define internal ptr @get_pkey(ptr noundef %0, ptr noundef %1, i32 noundef %2, i32 noundef %3, ptr noundef %4, i32 noundef %5, ptr noundef %6) #0 {
  %8 = alloca ptr, align 8
  %9 = alloca ptr, align 8
  %10 = alloca ptr, align 8
  %11 = alloca i32, align 4
  %12 = alloca i32, align 4
  %13 = alloca ptr, align 8
  %14 = alloca i32, align 4
  %15 = alloca ptr, align 8
  %16 = alloca ptr, align 8
  %17 = alloca ptr, align 8
  %18 = alloca ptr, align 8
  %19 = alloca i32, align 4
  store ptr %0, ptr %9, align 8, !tbaa !21
  store ptr %1, ptr %10, align 8, !tbaa !21
  store i32 %2, ptr %11, align 4, !tbaa !4
  store i32 %3, ptr %12, align 4, !tbaa !4
  store ptr %4, ptr %13, align 8, !tbaa !21
  store i32 %5, ptr %14, align 4, !tbaa !4
  store ptr %6, ptr %15, align 8, !tbaa !15
  call void @llvm.lifetime.start.p0(i64 8, ptr %16) #7
  store ptr null, ptr %16, align 8, !tbaa !19
  call void @llvm.lifetime.start.p0(i64 8, ptr %17) #7
  store ptr null, ptr %17, align 8, !tbaa !21
  call void @llvm.lifetime.start.p0(i64 8, ptr %18) #7
  %20 = load i32, ptr %14, align 4, !tbaa !4
  %21 = icmp eq i32 %20, 16
  br i1 %21, label %28, label %22

22:                                               ; preds = %7
  %23 = load i32, ptr %14, align 4, !tbaa !4
  %24 = icmp eq i32 %23, 1024
  br i1 %24, label %28, label %25

25:                                               ; preds = %22
  %26 = load i32, ptr %14, align 4, !tbaa !4
  %27 = icmp eq i32 %26, 2048
  br i1 %27, label %28, label %37

28:                                               ; preds = %25, %22, %7
  %29 = load i32, ptr %12, align 4, !tbaa !4
  %30 = icmp ne i32 %29, 1
  br i1 %30, label %31, label %37

31:                                               ; preds = %28
  %32 = load ptr, ptr %9, align 8, !tbaa !21
  %33 = icmp eq ptr %32, null
  br i1 %33, label %34, label %37

34:                                               ; preds = %31
  %35 = load ptr, ptr @bio_err, align 8, !tbaa !13
  %36 = call i32 (ptr, ptr, ...) @BIO_printf(ptr noundef %35, ptr noundef @.str.121)
  store ptr null, ptr %8, align 8
  store i32 1, ptr %19, align 4
  br label %71

37:                                               ; preds = %31, %28, %25
  %38 = load ptr, ptr %13, align 8, !tbaa !21
  %39 = call i32 @app_passwd(ptr noundef %38, ptr noundef null, ptr noundef %17, ptr noundef null)
  %40 = icmp ne i32 %39, 0
  br i1 %40, label %44, label %41

41:                                               ; preds = %37
  %42 = load ptr, ptr @bio_err, align 8, !tbaa !13
  %43 = call i32 (ptr, ptr, ...) @BIO_printf(ptr noundef %42, ptr noundef @.str.122)
  store ptr null, ptr %8, align 8
  store i32 1, ptr %19, align 4
  br label %71

44:                                               ; preds = %37
  %45 = load i32, ptr %12, align 4, !tbaa !4
  switch i32 %45, label %68 [
    i32 1, label %46
    i32 2, label %52
    i32 3, label %57
    i32 0, label %68
  ]

46:                                               ; preds = %44
  %47 = load ptr, ptr %10, align 8, !tbaa !21
  %48 = load i32, ptr %11, align 4, !tbaa !4
  %49 = load ptr, ptr %17, align 8, !tbaa !21
  %50 = load ptr, ptr %15, align 8, !tbaa !15
  %51 = call ptr @load_key(ptr noundef %47, i32 noundef %48, i32 noundef 0, ptr noundef %49, ptr noundef %50, ptr noundef @.str.123)
  store ptr %51, ptr %16, align 8, !tbaa !19
  br label %68

52:                                               ; preds = %44
  %53 = load ptr, ptr %10, align 8, !tbaa !21
  %54 = load i32, ptr %11, align 4, !tbaa !4
  %55 = load ptr, ptr %15, align 8, !tbaa !15
  %56 = call ptr @load_pubkey(ptr noundef %53, i32 noundef %54, i32 noundef 0, ptr noundef null, ptr noundef %55, ptr noundef @.str.124)
  store ptr %56, ptr %16, align 8, !tbaa !19
  br label %68

57:                                               ; preds = %44
  %58 = load ptr, ptr %10, align 8, !tbaa !21
  %59 = load i32, ptr %11, align 4, !tbaa !4
  %60 = call ptr @load_cert_pass(ptr noundef %58, i32 noundef %59, i32 noundef 1, ptr noundef null, ptr noundef @.str.125)
  store ptr %60, ptr %18, align 8, !tbaa !42
  %61 = load ptr, ptr %18, align 8, !tbaa !42
  %62 = icmp ne ptr %61, null
  br i1 %62, label %63, label %67

63:                                               ; preds = %57
  %64 = load ptr, ptr %18, align 8, !tbaa !42
  %65 = call ptr @X509_get_pubkey(ptr noundef %64)
  store ptr %65, ptr %16, align 8, !tbaa !19
  %66 = load ptr, ptr %18, align 8, !tbaa !42
  call void @X509_free(ptr noundef %66)
  br label %67

67:                                               ; preds = %63, %57
  br label %68

68:                                               ; preds = %44, %44, %67, %52, %46
  %69 = load ptr, ptr %17, align 8, !tbaa !21
  call void @CRYPTO_free(ptr noundef %69, ptr noundef @.str.103, i32 noundef 652)
  %70 = load ptr, ptr %16, align 8, !tbaa !19
  store ptr %70, ptr %8, align 8
  store i32 1, ptr %19, align 4
  br label %71

71:                                               ; preds = %68, %41, %34
  call void @llvm.lifetime.end.p0(i64 8, ptr %18) #7
  call void @llvm.lifetime.end.p0(i64 8, ptr %17) #7
  call void @llvm.lifetime.end.p0(i64 8, ptr %16) #7
  %72 = load ptr, ptr %8, align 8
  ret ptr %72
}