; Function Attrs: nounwind uwtable
define internal fastcc ptr @get_pkey(ptr noundef readnone captures(address_is_null) %0, ptr noundef %1, i32 noundef %2, i32 noundef range(i32 0, 4) %3, ptr noundef %4, i32 noundef range(i32 16, 8193) %5, ptr noundef %6) unnamed_addr #0 {
  %8 = alloca ptr, align 8
  call void @llvm.lifetime.start.p0(i64 8, ptr nonnull %8) #7
  store ptr null, ptr %8, align 8, !tbaa !4
  %9 = icmp eq i32 %5, 16
  %10 = icmp eq i32 %5, 1024
  %or.cond = or i1 %9, %10
  %11 = icmp eq i32 %5, 2048
  %or.cond3 = or i1 %11, %or.cond
  %12 = icmp ne i32 %3, 1
  %or.cond5 = and i1 %12, %or.cond3
  %13 = icmp eq ptr %0, null
  %or.cond7 = and i1 %13, %or.cond5
  br i1 %or.cond7, label %14, label %17

14:                                               ; preds = %7
  %15 = load ptr, ptr @bio_err, align 8, !tbaa !15
  %16 = tail call i32 (ptr, ptr, ...) @BIO_printf(ptr noundef %15, ptr noundef nonnull @.str.121) #7
  br label %34

17:                                               ; preds = %7
  %18 = call i32 @app_passwd(ptr noundef %4, ptr noundef null, ptr noundef nonnull %8, ptr noundef null) #7
  %.not = icmp eq i32 %18, 0
  br i1 %.not, label %19, label %22

19:                                               ; preds = %17
  %20 = load ptr, ptr @bio_err, align 8, !tbaa !15
  %21 = call i32 (ptr, ptr, ...) @BIO_printf(ptr noundef %20, ptr noundef nonnull @.str.122) #7
  br label %34

22:                                               ; preds = %17
  switch i32 %3, label %default.unreachable [
    i32 1, label %23
    i32 2, label %26
    i32 3, label %28
    i32 0, label %32
  ]

23:                                               ; preds = %22
  %24 = load ptr, ptr %8, align 8, !tbaa !4
  %25 = call ptr @load_key(ptr noundef %1, i32 noundef %2, i32 noundef 0, ptr noundef %24, ptr noundef %6, ptr noundef nonnull @.str.123) #7
  br label %32

26:                                               ; preds = %22
  %27 = call ptr @load_pubkey(ptr noundef %1, i32 noundef %2, i32 noundef 0, ptr noundef null, ptr noundef %6, ptr noundef nonnull @.str.124) #7
  br label %32

28:                                               ; preds = %22
  %29 = call ptr @load_cert_pass(ptr noundef %1, i32 noundef %2, i32 noundef 1, ptr noundef null, ptr noundef nonnull @.str.125) #7
  %.not28 = icmp eq ptr %29, null
  br i1 %.not28, label %32, label %30

30:                                               ; preds = %28
  %31 = call ptr @X509_get_pubkey(ptr noundef nonnull %29) #7
  call void @X509_free(ptr noundef nonnull %29) #7
  br label %32

default.unreachable:                              ; preds = %22
  unreachable

32:                                               ; preds = %22, %28, %30, %26, %23
  %.026 = phi ptr [ null, %22 ], [ %31, %30 ], [ null, %28 ], [ %27, %26 ], [ %25, %23 ]
  %33 = load ptr, ptr %8, align 8, !tbaa !4
  call void @CRYPTO_free(ptr noundef %33, ptr noundef nonnull @.str.103, i32 noundef 652) #7
  br label %34

34:                                               ; preds = %32, %19, %14
  %.0 = phi ptr [ null, %14 ], [ %.026, %32 ], [ null, %19 ]
  call void @llvm.lifetime.end.p0(i64 8, ptr nonnull %8) #7
  ret ptr %.0
}